; Function Attrs: mustprogress uwtable
define internal void @_ZN12_GLOBAL__N_114SynthIce40Pass11on_registerEv(ptr nocapture nonnull readnone align 8 %0) unnamed_addr #4 align 2 personality ptr @__gxx_personality_v0 {
  %2 = alloca %"class.std::__cxx11::basic_string", align 8
  %3 = alloca %"class.std::allocator", align 1
  %4 = alloca %"class.std::__cxx11::basic_string", align 8
  %5 = alloca %"class.std::allocator", align 1
  %6 = alloca %"class.std::__cxx11::basic_string", align 8
  %7 = alloca %"class.std::allocator", align 1
  call void @_ZNSaIcEC1Ev(ptr noundef nonnull align 1 dereferenceable(1) %3) #22
  invoke void @_ZNSt7__cxx1112basic_stringIcSt11char_traitsIcESaIcEEC1EPKcRKS3_(ptr noundef nonnull align 8 dereferenceable(32) %2, ptr noundef nonnull @.str.95, ptr noundef nonnull align 1 dereferenceable(1) %3)
          to label %8 unwind label %23

8:                                                ; preds = %1
  %9 = invoke noundef nonnull align 8 dereferenceable(32) ptr @_ZN5Yosys7hashlib4dictINSt7__cxx1112basic_stringIcSt11char_traitsIcESaIcEEES7_NS0_8hash_opsIS7_EEEixERKS7_(ptr noundef nonnull align 8 dereferenceable(49) @_ZN5Yosys5RTLIL8constpadB5cxx11E, ptr noundef nonnull align 8 dereferenceable(32) %2)
          to label %10 unwind label %25

10:                                               ; preds = %8
  %11 = invoke noundef nonnull align 8 dereferenceable(32) ptr @_ZNSt7__cxx1112basic_stringIcSt11char_traitsIcESaIcEEaSEPKc(ptr noundef nonnull align 8 dereferenceable(32) %9, ptr noundef nonnull @.str.94)
          to label %12 unwind label %25

12:                                               ; preds = %10
  call void @_ZNSt7__cxx1112basic_stringIcSt11char_traitsIcESaIcEED1Ev(ptr noundef nonnull align 8 dereferenceable(32) %2) #22
  call void @_ZNSaIcED1Ev(ptr noundef nonnull align 1 dereferenceable(1) %3) #22
  call void @_ZNSaIcEC1Ev(ptr noundef nonnull align 1 dereferenceable(1) %5) #22
  invoke void @_ZNSt7__cxx1112basic_stringIcSt11char_traitsIcESaIcEEC1EPKcRKS3_(ptr noundef nonnull align 8 dereferenceable(32) %4, ptr noundef nonnull @.str.97, ptr noundef nonnull align 1 dereferenceable(1) %5)
          to label %13 unwind label %27

13:                                               ; preds = %12
  %14 = invoke noundef nonnull align 8 dereferenceable(32) ptr @_ZN5Yosys7hashlib4dictINSt7__cxx1112basic_stringIcSt11char_traitsIcESaIcEEES7_NS0_8hash_opsIS7_EEEixERKS7_(ptr noundef nonnull align 8 dereferenceable(49) @_ZN5Yosys5RTLIL8constpadB5cxx11E, ptr noundef nonnull align 8 dereferenceable(32) %4)
          to label %15 unwind label %29

15:                                               ; preds = %13
  %16 = invoke noundef nonnull align 8 dereferenceable(32) ptr @_ZNSt7__cxx1112basic_stringIcSt11char_traitsIcESaIcEEaSEPKc(ptr noundef nonnull align 8 dereferenceable(32) %14, ptr noundef nonnull @.str.96)
          to label %17 unwind label %29

17:                                               ; preds = %15
  call void @_ZNSt7__cxx1112basic_stringIcSt11char_traitsIcESaIcEED1Ev(ptr noundef nonnull align 8 dereferenceable(32) %4) #22
  call void @_ZNSaIcED1Ev(ptr noundef nonnull align 1 dereferenceable(1) %5) #22
  call void @_ZNSaIcEC1Ev(ptr noundef nonnull align 1 dereferenceable(1) %7) #22
  invoke void @_ZNSt7__cxx1112basic_stringIcSt11char_traitsIcESaIcEEC1EPKcRKS3_(ptr noundef nonnull align 8 dereferenceable(32) %6, ptr noundef nonnull @.str.99, ptr noundef nonnull align 1 dereferenceable(1) %7)
          to label %18 unwind label %31

18:                                               ; preds = %17
  %19 = invoke noundef nonnull align 8 dereferenceable(32) ptr @_ZN5Yosys7hashlib4dictINSt7__cxx1112basic_stringIcSt11char_traitsIcESaIcEEES7_NS0_8hash_opsIS7_EEEixERKS7_(ptr noundef nonnull align 8 dereferenceable(49) @_ZN5Yosys5RTLIL8constpadB5cxx11E, ptr noundef nonnull align 8 dereferenceable(32) %6)
          to label %20 unwind label %33

20:                                               ; preds = %18
  %21 = invoke noundef nonnull align 8 dereferenceable(32) ptr @_ZNSt7__cxx1112basic_stringIcSt11char_traitsIcESaIcEEaSEPKc(ptr noundef nonnull align 8 dereferenceable(32) %19, ptr noundef nonnull @.str.98)
          to label %22 unwind label %33

22:                                               ; preds = %20
  call void @_ZNSt7__cxx1112basic_stringIcSt11char_traitsIcESaIcEED1Ev(ptr noundef nonnull align 8 dereferenceable(32) %6) #22
  call void @_ZNSaIcED1Ev(ptr noundef nonnull align 1 dereferenceable(1) %7) #22
  ret void

23:                                               ; preds = %1
  %24 = landingpad { ptr, i32 }
          cleanup
  br label %35

25:                                               ; preds = %10, %8
  %26 = landingpad { ptr, i32 }
          cleanup
  call void @_ZNSt7__cxx1112basic_stringIcSt11char_traitsIcESaIcEED1Ev(ptr noundef nonnull align 8 dereferenceable(32) %2) #22
  br label %35

27:                                               ; preds = %12
  %28 = landingpad { ptr, i32 }
          cleanup
  br label %35

29:                                               ; preds = %15, %13
  %30 = landingpad { ptr, i32 }
          cleanup
  call void @_ZNSt7__cxx1112basic_stringIcSt11char_traitsIcESaIcEED1Ev(ptr noundef nonnull align 8 dereferenceable(32) %4) #22
  br label %35

31:                                               ; preds = %17
  %32 = landingpad { ptr, i32 }
          cleanup
  br label %35

33:                                               ; preds = %20, %18
  %34 = landingpad { ptr, i32 }
          cleanup
  call void @_ZNSt7__cxx1112basic_stringIcSt11char_traitsIcESaIcEED1Ev(ptr noundef nonnull align 8 dereferenceable(32) %6) #22
  br label %35

35:                                               ; preds = %31, %33, %27, %29, %23, %25
  %.sink = phi ptr [ %3, %25 ], [ %3, %23 ], [ %5, %29 ], [ %5, %27 ], [ %7, %33 ], [ %7, %31 ]
  %.pn8.pn = phi { ptr, i32 } [ %26, %25 ], [ %24, %23 ], [ %30, %29 ], [ %28, %27 ], [ %34, %33 ], [ %32, %31 ]
  call void @_ZNSaIcED1Ev(ptr noundef nonnull align 1 dereferenceable(1) %.sink) #22
  resume { ptr, i32 } %.pn8.pn
}